; Function Attrs: mustprogress uwtable
define void @_ZN2cv3dnn14dnn4_v202412235Layer8finalizeERKSt6vectorINS_3MatESaIS4_EE(ptr dead_on_unwind noalias writable sret(%"class.std::vector") align 8 initializes((0, 24)) %0, ptr noundef nonnull align 8 dereferenceable(100) %1, ptr noundef nonnull align 8 dereferenceable(24) %2) local_unnamed_addr #3 align 2 personality ptr @__gxx_personality_v0 {
  %4 = alloca %"class.cv::utils::trace::details::Region", align 8
  %5 = alloca %"class.cv::_InputArray", align 8
  %6 = alloca %"class.cv::_OutputArray", align 8
  %7 = alloca %"class.cv::utils::trace::details::Region", align 8
  call void @llvm.lifetime.start.p0(i64 16, ptr nonnull %7) #23
  call void @_ZN2cv5utils5trace7details6RegionC1ERKNS3_21LocationStaticStorageE(ptr noundef nonnull align 8 dereferenceable(12) %7, ptr noundef nonnull align 8 dereferenceable(32) @_ZZN2cv3dnn14dnn4_v202412235Layer8finalizeERKSt6vectorINS_3MatESaIS4_EEE25__cv_trace_location_fn154)
  call void @llvm.memset.p0.i64(ptr noundef nonnull align 8 dereferenceable(24) %0, i8 0, i64 24, i1 false)
  call void @llvm.lifetime.start.p0(i64 16, ptr nonnull %4) #23
  invoke void @_ZN2cv5utils5trace7details6RegionC1ERKNS3_21LocationStaticStorageE(ptr noundef nonnull align 8 dereferenceable(12) %4, ptr noundef nonnull align 8 dereferenceable(32) @_ZZN2cv3dnn14dnn4_v202412235Layer8finalizeERKSt6vectorINS_3MatESaIS4_EERS6_E25__cv_trace_location_fn130)
          to label %.noexc unwind label %25

.noexc:                                           ; preds = %3
  call void @llvm.lifetime.start.p0(i64 24, ptr nonnull %5) #23
  %8 = getelementptr inbounds nuw i8, ptr %5, i64 16
  store i32 0, ptr %8, align 8, !tbaa !68
  %9 = getelementptr inbounds nuw i8, ptr %5, i64 20
  store i32 0, ptr %9, align 4, !tbaa !70
  store i32 17104896, ptr %5, align 8, !tbaa !71
  %10 = getelementptr inbounds nuw i8, ptr %5, i64 8
  store ptr %2, ptr %10, align 8, !tbaa !73
  call void @llvm.lifetime.start.p0(i64 24, ptr nonnull %6) #23
  %11 = getelementptr inbounds nuw i8, ptr %6, i64 8
  %12 = getelementptr inbounds nuw i8, ptr %6, i64 16
  store i64 0, ptr %12, align 8
  store i32 33882112, ptr %6, align 8, !tbaa !71
  store ptr %0, ptr %11, align 8, !tbaa !73
  %13 = load ptr, ptr %1, align 8, !tbaa !3
  %14 = getelementptr inbounds nuw i8, ptr %13, i64 72
  %15 = load ptr, ptr %14, align 8
  invoke void %15(ptr noundef nonnull align 8 dereferenceable(100) %1, ptr noundef nonnull align 8 dereferenceable(24) %5, ptr noundef nonnull align 8 dereferenceable(24) %6)
          to label %16 unwind label %23

16:                                               ; preds = %.noexc
  call void @llvm.lifetime.end.p0(i64 24, ptr nonnull %6) #23
  call void @llvm.lifetime.end.p0(i64 24, ptr nonnull %5) #23
  %17 = getelementptr inbounds nuw i8, ptr %4, i64 8
  %18 = load i32, ptr %17, align 8, !tbaa !74
  %.not.i.i = icmp eq i32 %18, 0
  br i1 %.not.i.i, label %27, label %19

19:                                               ; preds = %16
  invoke void @_ZN2cv5utils5trace7details6Region7destroyEv(ptr noundef nonnull align 8 dereferenceable(12) %4)
          to label %27 unwind label %20

20:                                               ; preds = %19
  %21 = landingpad { ptr, i32 }
          catch ptr null
  %22 = extractvalue { ptr, i32 } %21, 0
  call void @__clang_call_terminate(ptr %22) #27
  unreachable

23:                                               ; preds = %.noexc
  %24 = landingpad { ptr, i32 }
          cleanup
  call void @llvm.lifetime.end.p0(i64 24, ptr nonnull %6) #23
  call void @llvm.lifetime.end.p0(i64 24, ptr nonnull %5) #23
  call void @_ZN2cv5utils5trace7details6RegionD2Ev(ptr noundef nonnull align 8 dereferenceable(12) %4) #23
  call void @llvm.lifetime.end.p0(i64 16, ptr nonnull %4) #23
  br label %.body

25:                                               ; preds = %3
  %26 = landingpad { ptr, i32 }
          cleanup
  br label %.body

.body:                                            ; preds = %23, %25
  %eh.lpad-body = phi { ptr, i32 } [ %26, %25 ], [ %24, %23 ]
  call void @_ZNSt6vectorIN2cv3MatESaIS1_EED2Ev(ptr noundef nonnull align 8 dereferenceable(24) %0) #23
  call void @_ZN2cv5utils5trace7details6RegionD2Ev(ptr noundef nonnull align 8 dereferenceable(12) %7) #23
  call void @llvm.lifetime.end.p0(i64 16, ptr nonnull %7) #23
  resume { ptr, i32 } %eh.lpad-body

27:                                               ; preds = %19, %16
  call void @llvm.lifetime.end.p0(i64 16, ptr nonnull %4) #23
  %28 = getelementptr inbounds nuw i8, ptr %7, i64 8
  %29 = load i32, ptr %28, align 8, !tbaa !74
  %.not.i = icmp eq i32 %29, 0
  br i1 %.not.i, label %_ZN2cv5utils5trace7details6RegionD2Ev.exit, label %30

30:                                               ; preds = %27
  invoke void @_ZN2cv5utils5trace7details6Region7destroyEv(ptr noundef nonnull align 8 dereferenceable(12) %7)
          to label %_ZN2cv5utils5trace7details6RegionD2Ev.exit unwind label %31

31:                                               ; preds = %30
  %32 = landingpad { ptr, i32 }
          catch ptr null
  %33 = extractvalue { ptr, i32 } %32, 0
  call void @__clang_call_terminate(ptr %33) #27
  unreachable

_ZN2cv5utils5trace7details6RegionD2Ev.exit:       ; preds = %27, %30
  call void @llvm.lifetime.end.p0(i64 16, ptr nonnull %7) #23
  ret void
}